target datalayout = "e-m:e-p270:32:32-p271:32:32-p272:64:64-i64:64-i128:128-f80:128-n8:16:32:64-S128"
target triple = "x86_64-pc-linux-gnu"

%struct._zval_struct = type { %union._zend_value, %union.anon, %union.anon.2 }
%union._zend_value = type { i64 }
%union.anon = type { i32 }
%union.anon.2 = type { i32 }
%struct._phar_entry_info = type { i32, i32, i32, i32, i32, i32, %struct._phar_metadata_tracker, i32, ptr, i32, i64, i64, i64, ptr, ptr, i32, ptr, ptr, ptr, i8, i32, i16, i16 }
%struct._phar_metadata_tracker = type { %struct._zval_struct, ptr }

@.str.23 = private unnamed_addr constant [13 x i8] c"zlib.deflate\00", align 1
@.str.24 = private unnamed_addr constant [15 x i8] c"bzip2.compress\00", align 1
@.str.25 = private unnamed_addr constant [8 x i8] c"unknown\00", align 1

; Function Attrs: nounwind uwtable
define hidden ptr @phar_compress_filter(ptr noundef %0, i32 noundef %1) #0 {
  %3 = alloca ptr, align 8
  %4 = alloca ptr, align 8
  %5 = alloca i32, align 4
  store ptr %0, ptr %4, align 8
  store i32 %1, ptr %5, align 4
  %6 = load ptr, ptr %4, align 8
  %7 = getelementptr inbounds %struct._phar_entry_info, ptr %6, i32 0, i32 4
  %8 = load i32, ptr %7, align 8
  %9 = and i32 %8, 61440
  switch i32 %9, label %12 [
    i32 4096, label %10
    i32 8192, label %11
  ]

10:                                               ; preds = %2
  store ptr @.str.23, ptr %3, align 8
  br label %16

11:                                               ; preds = %2
  store ptr @.str.24, ptr %3, align 8
  br label %16

12:                                               ; preds = %2
  %13 = load i32, ptr %5, align 4
  %14 = icmp ne i32 %13, 0
  %15 = select i1 %14, ptr @.str.25, ptr null
  store ptr %15, ptr %3, align 8
  br label %16

16:                                               ; preds = %12, %11, %10
  %17 = load ptr, ptr %3, align 8
  ret ptr %17
}