; Function Attrs: mustprogress nofree norecurse nosync nounwind willreturn memory(argmem: read) uwtable
define hidden noundef ptr @phar_compress_filter(ptr nocapture noundef readonly %0, i32 noundef %1) local_unnamed_addr #6 {
  %3 = getelementptr inbounds i8, ptr %0, i64 16
  %4 = load i32, ptr %3, align 8
  %5 = trunc i32 %4 to i16
  %trunc = and i16 %5, -4096
  switch i16 %trunc, label %7 [
    i16 4096, label %9
    i16 8192, label %6
  ]

6:                                                ; preds = %2
  br label %9

7:                                                ; preds = %2
  %.not = icmp eq i32 %1, 0
  %8 = select i1 %.not, ptr null, ptr @.str.25
  br label %9

9:                                                ; preds = %2, %7, %6
  %.0 = phi ptr [ %8, %7 ], [ @.str.24, %6 ], [ @.str.23, %2 ]
  ret ptr %.0
}